target datalayout = "e-m:e-p270:32:32-p271:32:32-p272:64:64-i64:64-i128:128-f80:128-n8:16:32:64-S128"
target triple = "x86_64-unknown-linux-gnu"

%"class.std::__cxx11::basic_string" = type { %"struct.std::__cxx11::basic_string<char>::_Alloc_hider", i64, %union.anon }
%"struct.std::__cxx11::basic_string<char>::_Alloc_hider" = type { ptr }
%union.anon = type { i64, [8 x i8] }
%"class.folly::Range" = type { ptr, ptr }
%"class.proxygen::HTTP1xCodec" = type <{ %"class.proxygen::HTTPCodec", %"class.std::__cxx11::basic_string", ptr, i64, i64, %"struct.proxygen::http_parser", ptr, %"class.std::unique_ptr", %"class.std::unique_ptr", %"class.std::unique_ptr.7", %"class.std::__cxx11::basic_string", %"class.folly::Range", %"class.std::__cxx11::basic_string", %"class.std::__cxx11::basic_string", %"class.std::__cxx11::basic_string", %"class.std::__cxx11::basic_string", %"class.std::__cxx11::basic_string", %"class.std::__cxx11::basic_string", %"struct.proxygen::HTTPHeaderSize", i8, i8, i8, i8, %"struct.std::pair", i32, [4 x i8] }>
%"class.proxygen::HTTPCodec" = type { ptr }
%"struct.proxygen::http_parser" = type { i8, i8, i8, i8, i32, i64, i16, i16, i16, i8, i8, ptr }
%"class.std::unique_ptr" = type { %"struct.std::__uniq_ptr_data" }
%"struct.std::__uniq_ptr_data" = type { %"class.std::__uniq_ptr_impl" }
%"class.std::__uniq_ptr_impl" = type { %"class.std::tuple" }
%"class.std::tuple" = type { %"struct.std::_Tuple_impl" }
%"struct.std::_Tuple_impl" = type { %"struct.std::_Head_base.6" }
%"struct.std::_Head_base.6" = type { ptr }
%"class.std::unique_ptr.7" = type { %"struct.std::__uniq_ptr_data.8" }
%"struct.std::__uniq_ptr_data.8" = type { %"class.std::__uniq_ptr_impl.9" }
%"class.std::__uniq_ptr_impl.9" = type { %"class.std::tuple.10" }
%"class.std::tuple.10" = type { %"struct.std::_Tuple_impl.11" }
%"struct.std::_Tuple_impl.11" = type { %"struct.std::_Head_base.14" }
%"struct.std::_Head_base.14" = type { ptr }
%"struct.proxygen::HTTPHeaderSize" = type { i32, i32, i32 }
%"struct.std::pair" = type { i8, %"class.std::__cxx11::basic_string" }

; Function Attrs: mustprogress nounwind uwtable
define noundef i64 @_ZN8proxygen11HTTP1xCodec12createStreamEv(ptr noundef nonnull align 8 dereferenceable(428) %this) unnamed_addr #5 align 2 {
entry:
  %retval = alloca i64, align 8
  %this.addr = alloca ptr, align 8
  store ptr %this, ptr %this.addr, align 8
  %this1 = load ptr, ptr %this.addr, align 8
  %transportDirection_ = getelementptr inbounds %"class.proxygen::HTTP1xCodec", ptr %this1, i32 0, i32 20
  %0 = load i8, ptr %transportDirection_, align 1
  %cmp = icmp eq i8 %0, 0
  br i1 %cmp, label %if.then, label %if.else

if.then:                                          ; preds = %entry
  %ingressTxnID_ = getelementptr inbounds %"class.proxygen::HTTP1xCodec", ptr %this1, i32 0, i32 3
  %1 = load i64, ptr %ingressTxnID_, align 8
  %inc = add i64 %1, 1
  store i64 %inc, ptr %ingressTxnID_, align 8
  store i64 %inc, ptr %retval, align 8
  br label %return

if.else:                                          ; preds = %entry
  %egressTxnID_ = getelementptr inbounds %"class.proxygen::HTTP1xCodec", ptr %this1, i32 0, i32 4
  %2 = load i64, ptr %egressTxnID_, align 8
  %inc2 = add i64 %2, 1
  store i64 %inc2, ptr %egressTxnID_, align 8
  store i64 %inc2, ptr %retval, align 8
  br label %return

return:                                           ; preds = %if.else, %if.then
  %3 = load i64, ptr %retval, align 8
  ret i64 %3
}