; Function Attrs: mustprogress nofree norecurse nosync nounwind willreturn memory(argmem: readwrite) uwtable
define noundef i64 @_ZN8proxygen11HTTP1xCodec12createStreamEv(ptr nocapture noundef nonnull align 8 dereferenceable(428) %this) unnamed_addr #7 align 2 {
entry:
  %transportDirection_ = getelementptr inbounds i8, ptr %this, i64 381
  %0 = load i8, ptr %transportDirection_, align 1
  %cmp = icmp eq i8 %0, 0
  br i1 %cmp, label %if.then, label %if.else

if.then:                                          ; preds = %entry
  %ingressTxnID_ = getelementptr inbounds i8, ptr %this, i64 48
  %1 = load i64, ptr %ingressTxnID_, align 8
  %inc = add i64 %1, 1
  store i64 %inc, ptr %ingressTxnID_, align 8
  br label %return

if.else:                                          ; preds = %entry
  %egressTxnID_ = getelementptr inbounds i8, ptr %this, i64 56
  %2 = load i64, ptr %egressTxnID_, align 8
  %inc2 = add i64 %2, 1
  store i64 %inc2, ptr %egressTxnID_, align 8
  br label %return

return:                                           ; preds = %if.else, %if.then
  %retval.0 = phi i64 [ %inc, %if.then ], [ %inc2, %if.else ]
  ret i64 %retval.0
}